; Function Attrs: mustprogress nounwind uwtable
define internal noundef zeroext i1 @_ZNK12_GLOBAL__N_124ParsedAttrInfoSYCLKernel20diagAppertainsToDeclERN5clang4SemaERKNS1_10ParsedAttrEPKNS1_4DeclE(ptr nocapture nonnull readnone align 8 %0, ptr noundef nonnull align 8 dereferenceable(17560) %1, ptr noundef nonnull align 8 dereferenceable(72) %2, ptr noundef %3) unnamed_addr #0 align 2 {
  %5 = alloca %"class.clang::SemaBase::SemaDiagnosticBuilder", align 8
  %6 = alloca i8, align 1
  %7 = getelementptr inbounds nuw i8, ptr %3, i64 28
  %8 = load i32, ptr %7, align 4
  %9 = and i32 %8, 127
  %10 = add nsw i32 %9, -37
  %11 = icmp ult i32 %10, -6
  %.not5.i = icmp eq ptr %3, null
  %.not.i = or i1 %.not5.i, %11
  br i1 %.not.i, label %_ZN12_GLOBAL__N_114isFunctionTmplEPKN5clang4DeclE.exit.thread, label %_ZN12_GLOBAL__N_114isFunctionTmplEPKN5clang4DeclE.exit

_ZN12_GLOBAL__N_114isFunctionTmplEPKN5clang4DeclE.exit: ; preds = %4
  %12 = tail call noundef i32 @_ZNK5clang12FunctionDecl16getTemplatedKindEv(ptr noundef nonnull align 8 dereferenceable(168) %3) #18
  %13 = icmp eq i32 %12, 1
  br i1 %13, label %24, label %_ZN12_GLOBAL__N_114isFunctionTmplEPKN5clang4DeclE.exit.thread

_ZN12_GLOBAL__N_114isFunctionTmplEPKN5clang4DeclE.exit.thread: ; preds = %4, %_ZN12_GLOBAL__N_114isFunctionTmplEPKN5clang4DeclE.exit
  %14 = getelementptr inbounds i8, ptr %1, i64 8
  %15 = getelementptr inbounds nuw i8, ptr %2, i64 16
  %.sroa.0.0.copyload.i.i = load i32, ptr %15, align 8
  call void @_ZN5clang8SemaBase4DiagENS_14SourceLocationEjb(ptr dead_on_unwind nonnull writable sret(%"class.clang::SemaBase::SemaDiagnosticBuilder") align 8 %5, ptr noundef nonnull align 8 dereferenceable(8) %14, i32 %.sroa.0.0.copyload.i.i, i32 noundef 6180, i1 noundef zeroext false) #18
  %16 = call noundef nonnull align 8 dereferenceable(96) ptr @_ZN5clanglsINS_10ParsedAttrEEERKNS_8SemaBase21SemaDiagnosticBuilderES5_RKT_(ptr noundef nonnull align 8 dereferenceable(96) %5, ptr noundef nonnull align 8 dereferenceable(72) %2)
  %17 = getelementptr inbounds nuw i8, ptr %2, i64 28
  %18 = load i32, ptr %17, align 4
  %19 = lshr i32 %18, 25
  %20 = trunc nuw nsw i32 %19 to i8
  %21 = and i8 %20, 1
  store i8 %21, ptr %6, align 1
  %22 = call noundef nonnull align 8 dereferenceable(96) ptr @_ZNK5clang8SemaBase21SemaDiagnosticBuilderlsIbvEERKS1_OT_(ptr noundef nonnull align 8 dereferenceable(96) %16, ptr noundef nonnull align 1 dereferenceable(1) %6)
  %23 = call noundef nonnull align 8 dereferenceable(96) ptr @_ZN5clanglsIA19_cEERKNS_8SemaBase21SemaDiagnosticBuilderES5_RKT_(ptr noundef nonnull align 8 dereferenceable(96) %22, ptr noundef nonnull align 1 dereferenceable(19) @.str.1405)
  call void @_ZN5clang8SemaBase21SemaDiagnosticBuilderD1Ev(ptr noundef nonnull align 8 dereferenceable(96) %5) #18
  br label %24

24:                                               ; preds = %_ZN12_GLOBAL__N_114isFunctionTmplEPKN5clang4DeclE.exit, %_ZN12_GLOBAL__N_114isFunctionTmplEPKN5clang4DeclE.exit.thread
  %.0.i8 = phi i1 [ true, %_ZN12_GLOBAL__N_114isFunctionTmplEPKN5clang4DeclE.exit ], [ false, %_ZN12_GLOBAL__N_114isFunctionTmplEPKN5clang4DeclE.exit.thread ]
  ret i1 %.0.i8
}